MPASM  4.02 Released                             PROG_4_7.ASM   8-10-2006  12:22:04         PAGE  1


LOC  OBJECT CODE     LINE SOURCE TEXT
  VALUE

                      00001 ;******************************************************************
                      00002 ;       Dosya Adý               : 4_7.asm
                      00003 ;       Programýn Amacý         : WDT uygulamasý.
                      00004 ;       PICDK2.1a               : PORTB Çýkýþ ==> LED
                      00005 ;                               : PORTA Dijital Giriþ <== BUTON
                      00006 ;                               : XT ==> 4Mhz
                      00007 ;*****************************************************************
                      00008         list            p=16F877A       ; Derleyici için bilgi
                      00009         #include        <P16F877A.INC>  ; 877A için gerekli isim-                                       
                                            
                      00001         LIST
                      00002 ; P16F877A.INC  Standard Header File, Version 1.00    Microchip Technology, Inc.
                      00398         LIST
                      00010                                         ; adres eþleþmeleri.
2007   3F31           00011         __config H'3F31'                ; PWRT on, diðerleri kapalý, 
                      00012                                         ; Osilatör XT ve 4Mhz
                      00013 ;-------------------------------------------------------------------
                      00014 ; Genel deðiþken tanýmlamalarý.
                      00015 ;-------------------------------------------------------------------
  00000020            00016 YEDEK_W EQU     0x020                   ; Yedekleme register’larý.
  00000021            00017 YEDEK_STATUS    EQU     0x021
  00000022            00018 YEDEK_PCLATH    EQU     0x022
  00000025            00019 hata_kayit_reg  EQU     0x025           ; Kaç kere hata yapýldýðýný sayar. 
                      00020 ;-------------------------------------------------------------------    
0000                  00021         ORG     0x000                   ; Baþlangýç adresi.
0000   2817           00022         goto    ana_program             ; Ana programa git.
0004                  00023         ORG     0x004                   ; Kesme vektörü adresi.
                      00024 ;-------------------------------------------------------------------
                      00025 ; PCLATH, W ve STATUS register’ýný yedekleme bölümü.
                      00026 ;-------------------------------------------------------------------
0004   00A0           00027         movwf   YEDEK_W                 ;W register’i içeriðini YEDEK_W’ye kaydet.
0005   0803           00028         movf    STATUS,W                ; STATUS’ü W ye al.
0006   00A1           00029         movwf   YEDEK_STATUS            ; Bunu YEDEK_STATUS’e kayýt et.
0007   080A           00030         movf    PCLATH,W                ; PCLATH’i W ye aktar,
0008   00A2           00031         movwf   YEDEK_PCLATH            ; bunu YEDEK_PCCLATH’a kaydet.
                      00032 ;-------------------------------------------------------------------
                      00033 ; Kesme alt programý: TMR1'e ait her kesmede PORTB=1’se “0”,
                      00034 ; PORTB=0’sa “1” yapar.
                      00035 ;-------------------------------------------------------------------
0009                  00036 kesme
0009   1306           00037         bcf     PORTB,6                 ; Sýfýrlama belirtme LED'i.
000A   100C           00038         bcf     PIR1,TMR1IF             ; Artýk bayrak ile iþimiz 
                      00039                                         ; bitti, kapatabiliriz.
000B   1B86           00040         btfsc   PORTB,7                 ; PORTB'nin 1. bit’ine baðlý LED 
                      00041                                         ; yanýyorsa kapatma
000C   280F           00042         goto    portb1sýfýryap          ; programýný çaðýr, kapalýysa 
                      00043                                         ; devam et ve
000D   1786           00044         bsf     PORTB,7                 ; PORTB'yi "1" durumuna getir ve
000E   2810           00045         goto    kesme_bitir             ; kesmeden çýkmaya hazýrlan.
000F                  00046 portb1sýfýryap
000F   1386           00047         bcf     PORTB,7                 ; PORTB'yi "0 durumuna getir.
                      00048 ;------ Yedekteki PCLATH, W ve STATUS registerini geri yüklemek-----
0010                  00049 kesme_bitir
MPASM  4.02 Released                             PROG_4_7.ASM   8-10-2006  12:22:04         PAGE  2


LOC  OBJECT CODE     LINE SOURCE TEXT
  VALUE

0010   0822           00050         movf    YEDEK_PCLATH, W         ; Kesme öncesi kopyayý W’ye al,
0011   008A           00051         movwf   PCLATH                  ; bunu PCLATH’a kopyala.
0012   0821           00052         movf    YEDEK_STATUS, W         ; Kesme öncesi STATUS’ü W’ye al,
0013   0083           00053         movwf   STATUS                  ; bunu STATUS’e kopyala.
0014   0EA0           00054         swapf   YEDEK_W, F              ; Dört bit’in yerini deðiþtir,
0015   0E20           00055         swapf   YEDEK_W, W              ; tekrar çevir fakat W’ye kaydet. 
0016   0009           00056         retfie                          ; Kesmeden geri dön.
                      00057 ;-------------------------------------------------------------------
                      00058 ; Ana program: Port yönlendirme, Zamanlayýcý ayarý ve ana program 
                      00059 ; döngüsü burada.
                      00060 ;-------------------------------------------------------------------
0017                  00061 ana_program
0017   0185           00062         clrf    PORTA                   ; PORTA'yý temizle.
0018   0186           00063         clrf    PORTB                   ; PORTB'yi temizle.
0019   30F1           00064         movlw   b'11110001'     
001A   0090           00065         movwf   T1CON                   ; TMR1 zamanlayýcýsýný kur.
001B   30C0           00066         movlw   b'11000000'             ; TMR1 kesmesi için uygun bit’leri
001C   008B           00067         movwf   INTCON                  ; aktif duruma getir.
001D   300F           00068         movlw   b'00001111'             ; WDT zamanlayýcýsýnýn çarpanýný
Message[302]: Register in operand not in bank 0.  Ensure that bank bits are correct.
001E   0081           00069         movwf   OPTION_REG              ;111 olarak belirleyerek 2.3 sn de sýfýrla.
001F   1683           00070         bsf     STATUS,RP0              ; BANK1’e geç.
Message[302]: Register in operand not in bank 0.  Ensure that bank bits are correct.
0020   140C           00071         bsf     PIE1,0                  ; TMR1 kesmesini aç.
0021   3000           00072         movlw   b'00000000'             ; PORTB çýkýþ.
Message[302]: Register in operand not in bank 0.  Ensure that bank bits are correct.
0022   0086           00073         movwf   TRISB
0023   30FF           00074         movlw   b'11111111'             ; PORTA giriþ.
Message[302]: Register in operand not in bank 0.  Ensure that bank bits are correct.
0024   0085           00075         movwf   TRISA           
0025   3007           00076         movlw   b'00000111'             ; PORTA dijital giriþ
Message[302]: Register in operand not in bank 0.  Ensure that bank bits are correct.
0026   009F           00077         movwf   ADCON1                  ; olacak þekilde ADCON1 ayarlandý.
0027   1283           00078         bcf     STATUS,RP0              ; BANK0’a geç.
0028   1E03           00079         btfss   STATUS,4                ;STATUS,ün 4. bit’i 1 ise buraya WDT 
                      00080                                         ;sýfýrlamasý ile gelinmiþ demektir o zaman 
                      00081                                         ;hata sayýsýný bir artýr. 
0029   0AA5           00082         incf    hata_kayit_reg,f        ; Hata kaydý için bir bellek
                      00083                                         ; adresine kaç kez
002A   0825           00084         movfw   hata_kayit_reg          ; hata yapýldýðý kayýt edilir,
002B   0686           00085         xorwf   PORTB,F                 ; bu deðer PORTB'de görüntülenir.
002C   1706           00086         bsf     PORTB,6                 ; PORTB'nin 6 bit’ini 1 yap,
                      00087                                         ; sýfýrlamanýn anlaþýlmasý
                      00088                                         ; için... ilk kesmede 0 yapýlacaktýr.
002D                  00089 dongu
002D   1885           00090         btfsc   PORTA,1                 ; PORTA'nýn 1. bit’ine baðlý olan 
                      00091                                         ; RA0 isimli düðmeye basýlmadýðý
002E   0064           00092         clrwdt                          ; sürece WDT sayacý sýfýrlanýr.
002F   282D           00093         goto    dongu                   ; Eðer tuþa basýlmazsa WDT saymaya baþlar.
                      00094                                         ; Eðer belirlenen süreden uzun bir süre 
                      00095                                         ; tuþa basýlýrsa WDT taþar ve 
                      00096                                         ; mikrodenetleyici sýfýrlanýr.
0030                  00097 hata_kayit                              
MPASM  4.02 Released                             PROG_4_7.ASM   8-10-2006  12:22:04         PAGE  3


LOC  OBJECT CODE     LINE SOURCE TEXT
  VALUE

0030   0008           00098         return  
                      00099         end
MPASM  4.02 Released                             PROG_4_7.ASM   8-10-2006  12:22:04         PAGE  4


SYMBOL TABLE
  LABEL                             VALUE 

ACKDT                             00000005
ACKEN                             00000004
ACKSTAT                           00000006
ADCON0                            0000001F
ADCON1                            0000009F
ADCS0                             00000006
ADCS1                             00000007
ADDEN                             00000003
ADFM                              00000007
ADIE                              00000006
ADIF                              00000006
ADON                              00000000
ADRESH                            0000001E
ADRESL                            0000009E
BCLIE                             00000003
BCLIF                             00000003
BF                                00000000
BRGH                              00000002
C                                 00000000
C1INV                             00000004
C1OUT                             00000006
C2INV                             00000005
C2OUT                             00000007
CCP1CON                           00000017
CCP1IE                            00000002
CCP1IF                            00000002
CCP1M0                            00000000
CCP1M1                            00000001
CCP1M2                            00000002
CCP1M3                            00000003
CCP1X                             00000005
CCP1Y                             00000004
CCP2CON                           0000001D
CCP2IE                            00000000
CCP2IF                            00000000
CCP2M0                            00000000
CCP2M1                            00000001
CCP2M2                            00000002
CCP2M3                            00000003
CCP2X                             00000005
CCP2Y                             00000004
CCPR1H                            00000016
CCPR1L                            00000015
CCPR2H                            0000001C
CCPR2L                            0000001B
CHS0                              00000003
CHS1                              00000004
CHS2                              00000005
CIS                               00000003
CKE                               00000006
CKP                               00000004
CM0                               00000000
CM1                               00000001
MPASM  4.02 Released                             PROG_4_7.ASM   8-10-2006  12:22:04         PAGE  5


SYMBOL TABLE
  LABEL                             VALUE 

CM2                               00000002
CMCON                             0000009C
CMIE                              00000006
CMIF                              00000006
CREN                              00000004
CSRC                              00000007
CVR0                              00000000
CVR1                              00000001
CVR2                              00000002
CVR3                              00000003
CVRCON                            0000009D
CVREN                             00000007
CVROE                             00000006
CVRR                              00000005
D                                 00000005
DATA_ADDRESS                      00000005
DC                                00000001
D_A                               00000005
EEADR                             0000010D
EEADRH                            0000010F
EECON1                            0000018C
EECON2                            0000018D
EEDATA                            0000010C
EEDATH                            0000010E
EEIE                              00000004
EEIF                              00000004
EEPGD                             00000007
F                                 00000001
FERR                              00000002
FSR                               00000004
GCEN                              00000007
GIE                               00000007
GO                                00000002
GO_DONE                           00000002
I2C_DATA                          00000005
I2C_READ                          00000002
I2C_START                         00000003
I2C_STOP                          00000004
IBF                               00000007
IBOV                              00000005
INDF                              00000000
INTCON                            0000000B
INTE                              00000004
INTEDG                            00000006
INTF                              00000001
IRP                               00000007
NOT_A                             00000005
NOT_ADDRESS                       00000005
NOT_BO                            00000000
NOT_BOR                           00000000
NOT_DONE                          00000002
NOT_PD                            00000003
NOT_POR                           00000001
MPASM  4.02 Released                             PROG_4_7.ASM   8-10-2006  12:22:04         PAGE  6


SYMBOL TABLE
  LABEL                             VALUE 

NOT_RBPU                          00000007
NOT_RC8                           00000006
NOT_T1SYNC                        00000002
NOT_TO                            00000004
NOT_TX8                           00000006
NOT_W                             00000002
NOT_WRITE                         00000002
OBF                               00000006
OERR                              00000001
OPTION_REG                        00000081
P                                 00000004
PCFG0                             00000000
PCFG1                             00000001
PCFG2                             00000002
PCFG3                             00000003
PCL                               00000002
PCLATH                            0000000A
PCON                              0000008E
PEIE                              00000006
PEN                               00000002
PIE1                              0000008C
PIE2                              0000008D
PIR1                              0000000C
PIR2                              0000000D
PORTA                             00000005
PORTB                             00000006
PORTC                             00000007
PORTD                             00000008
PORTE                             00000009
PR2                               00000092
PS0                               00000000
PS1                               00000001
PS2                               00000002
PSA                               00000003
PSPIE                             00000007
PSPIF                             00000007
PSPMODE                           00000004
R                                 00000002
RBIE                              00000003
RBIF                              00000000
RC8_9                             00000006
RC9                               00000006
RCD8                              00000000
RCEN                              00000003
RCIE                              00000005
RCIF                              00000005
RCREG                             0000001A
RCSTA                             00000018
RD                                00000000
READ_WRITE                        00000002
RP0                               00000005
RP1                               00000006
RSEN                              00000001
MPASM  4.02 Released                             PROG_4_7.ASM   8-10-2006  12:22:04         PAGE  7


SYMBOL TABLE
  LABEL                             VALUE 

RX9                               00000006
RX9D                              00000000
R_W                               00000002
S                                 00000003
SEN                               00000000
SMP                               00000007
SPBRG                             00000099
SPEN                              00000007
SREN                              00000005
SSPADD                            00000093
SSPBUF                            00000013
SSPCON                            00000014
SSPCON2                           00000091
SSPEN                             00000005
SSPIE                             00000003
SSPIF                             00000003
SSPM0                             00000000
SSPM1                             00000001
SSPM2                             00000002
SSPM3                             00000003
SSPOV                             00000006
SSPSTAT                           00000094
STATUS                            00000003
SYNC                              00000004
T0CS                              00000005
T0IE                              00000005
T0IF                              00000002
T0SE                              00000004
T1CKPS0                           00000004
T1CKPS1                           00000005
T1CON                             00000010
T1INSYNC                          00000002
T1OSCEN                           00000003
T1SYNC                            00000002
T2CKPS0                           00000000
T2CKPS1                           00000001
T2CON                             00000012
TMR0                              00000001
TMR0IE                            00000005
TMR0IF                            00000002
TMR1CS                            00000001
TMR1H                             0000000F
TMR1IE                            00000000
TMR1IF                            00000000
TMR1L                             0000000E
TMR1ON                            00000000
TMR2                              00000011
TMR2IE                            00000001
TMR2IF                            00000001
TMR2ON                            00000002
TOUTPS0                           00000003
TOUTPS1                           00000004
TOUTPS2                           00000005
MPASM  4.02 Released                             PROG_4_7.ASM   8-10-2006  12:22:04         PAGE  8


SYMBOL TABLE
  LABEL                             VALUE 

TOUTPS3                           00000006
TRISA                             00000085
TRISB                             00000086
TRISC                             00000087
TRISD                             00000088
TRISE                             00000089
TRISE0                            00000000
TRISE1                            00000001
TRISE2                            00000002
TRMT                              00000001
TX8_9                             00000006
TX9                               00000006
TX9D                              00000000
TXD8                              00000000
TXEN                              00000005
TXIE                              00000004
TXIF                              00000004
TXREG                             00000019
TXSTA                             00000098
UA                                00000001
W                                 00000000
WCOL                              00000007
WR                                00000001
WREN                              00000002
WRERR                             00000003
YEDEK_PCLATH                      00000022
YEDEK_STATUS                      00000021
YEDEK_W                           00000020
Z                                 00000002
_BODEN_OFF                        00003FBF
_BODEN_ON                         00003FFF
_CPD_OFF                          00003FFF
_CPD_ON                           00003EFF
_CP_ALL                           00001FFF
_CP_OFF                           00003FFF
_DEBUG_OFF                        00003FFF
_DEBUG_ON                         000037FF
_HS_OSC                           00003FFE
_LP_OSC                           00003FFC
_LVP_OFF                          00003F7F
_LVP_ON                           00003FFF
_PWRTE_OFF                        00003FFF
_PWRTE_ON                         00003FF7
_RC_OSC                           00003FFF
_WDT_OFF                          00003FFB
_WDT_ON                           00003FFF
_WRT_1FOURTH                      00003BFF
_WRT_256                          00003DFF
_WRT_HALF                         000039FF
_WRT_OFF                          00003FFF
_XT_OSC                           00003FFD
__16F877A                         00000001
ana_program                       00000017
MPASM  4.02 Released                             PROG_4_7.ASM   8-10-2006  12:22:04         PAGE  9


SYMBOL TABLE
  LABEL                             VALUE 

dongu                             0000002D
hata_kayit                        00000030
hata_kayit_reg                    00000025
kesme                             00000009
kesme_bitir                       00000010
portb1sýfýryap                    0000000F


MEMORY USAGE MAP ('X' = Used,  '-' = Unused)

0000 : X---XXXXXXXXXXXX XXXXXXXXXXXXXXXX XXXXXXXXXXXXXXXX X---------------
2000 : -------X-------- ---------------- ---------------- ----------------

All other memory blocks unused.

Program Memory Words Used:    46
Program Memory Words Free:  8146


Errors   :     0
Warnings :     0 reported,     0 suppressed
Messages :     5 reported,     0 suppressed

