MPASM  5.42                     TUSTAKIMI.ASM   11-15-2011  9:28:46         PAGE  1


LOC  OBJECT CODE     LINE SOURCE TEXT
  VALUE

Warning[205]: Found directive in column 1. (list)
                      00001 list p=16F877A
Warning[205]: Found directive in column 1. (include)
                      00002 include "p16F877A.inc"
                      00001         LIST
                      00002 
                      00003 ;==========================================================================
                      00004 ;  MPASM PIC16F877A processor include
                      00005 ; 
                      00006 ;  (c) Copyright 1999-2011 Microchip Technology, All rights reserved
                      00007 ;==========================================================================
                      00008 
                      00555         LIST
Warning[205]: Found directive in column 1. (__config)
2007   3F31           00003 __config H'3F31'
                      00004 
0000                  00005         ORG 0x000
0000   2858           00006         goto ana_program
0004                  00007         ORG 0x004
                      00008 
0004                  00009 kesme
0004   180B           00010         btfsc INTCON,0
0005   2807           00011         goto tustakimi
0006   0009           00012         retfie
                      00013 
0007                  00014 tustakimi
0007   0188           00015         clrf PORTD
0008   100B           00016         bcf INTCON,0
0009   1106           00017         bcf PORTB,2
000A   1086           00018         bcf PORTB,1
000B   1006           00019         bcf PORTB,0
000C   1B86           00020         btfsc PORTB,7
000D   283F           00021         goto yedi
000E   1B06           00022         btfsc PORTB,6
000F   2839           00023         goto dort
0010   1A86           00024         btfsc PORTB,5
0011   2833           00025         goto bir
0012   1A06           00026         btfsc PORTB,4
0013   2845           00027         goto p
                      00028 
0014   1186           00029         bcf PORTB,3
0015   1506           00030         bsf PORTB,2
0016   1B86           00031         btfsc PORTB,7
0017   2841           00032         goto sekiz
0018   1B06           00033         btfsc PORTB,6
0019   283B           00034         goto bes
001A   1A86           00035         btfsc PORTB,5
001B   2835           00036         goto iki
001C   1A06           00037         btfsc PORTB,4
001D   2847           00038         goto sifir
                      00039 
001E   1106           00040         bcf PORTB,2
001F   1486           00041         bsf PORTB,1
MPASM  5.42                     TUSTAKIMI.ASM   11-15-2011  9:28:46         PAGE  2


LOC  OBJECT CODE     LINE SOURCE TEXT
  VALUE

0020   1B86           00042         btfsc PORTB,7
0021   2843           00043         goto dokuz
0022   1B06           00044         btfsc PORTB,6
0023   283D           00045         goto alti
0024   1A86           00046         btfsc PORTB,5
0025   2837           00047         goto uc
0026   1A06           00048         btfsc PORTB,4
0027   2849           00049         goto a
                      00050 
0028   1086           00051         bcf PORTB,1
0029   1406           00052         bsf PORTB,0
002A   1B86           00053         btfsc PORTB,7
002B   284B           00054         goto bol
002C   1B06           00055         btfsc PORTB,6
002D   284D           00056         goto carp
002E   1A86           00057         btfsc PORTB,5
002F   284F           00058         goto cikar
0030   1A06           00059         btfsc PORTB,4
0031   2851           00060         goto topla
                      00061 
0032   2852           00062         goto kesmesonu
                      00063 
0033                  00064 bir
0033   3006           00065         movlw b'00000110'
0034   0009           00066         retfie
                      00067 
0035                  00068 iki
0035   305B           00069         movlw b'01011011'
0036   2852           00070         goto kesmesonu
                      00071 
0037                  00072 uc
0037   304F           00073         movlw b'01001111'
0038   2852           00074         goto kesmesonu
                      00075 
0039                  00076 dort
0039   3066           00077         movlw b'01100110'
003A   2852           00078         goto kesmesonu
                      00079 
003B                  00080 bes
003B   306D           00081         movlw b'01101101'
003C   2852           00082         goto kesmesonu
003D                  00083 alti
003D   307D           00084         movlw b'01111101'
003E   2852           00085         goto kesmesonu
                      00086 
003F                  00087 yedi
003F   3007           00088         movlw b'00000111'
0040   2852           00089         goto kesmesonu
                      00090 
0041                  00091 sekiz
0041   307F           00092         movlw b'01111111'
0042   2852           00093         goto kesmesonu
                      00094 
MPASM  5.42                     TUSTAKIMI.ASM   11-15-2011  9:28:46         PAGE  3


LOC  OBJECT CODE     LINE SOURCE TEXT
  VALUE

0043                  00095 dokuz
0043   306F           00096         movlw b'01101111'
0044   2852           00097         goto kesmesonu
                      00098 
0045                  00099 p
0045   3073           00100         movlw b'01110011'
0046   2852           00101         goto kesmesonu
                      00102 
0047                  00103 sifir
0047   303F           00104         movlw b'00111111'
0048   2852           00105         goto kesmesonu
                      00106 
0049                  00107 a
0049   3077           00108         movlw b'01110111'
004A   2852           00109         goto kesmesonu
                      00110 
004B                  00111 bol
004B   307C           00112         movlw b'01111100'
004C   2852           00113         goto kesmesonu
                      00114 
004D                  00115 carp 
004D   3039           00116         movlw b'00111001'
004E   2852           00117         goto kesmesonu
                      00118 
004F                  00119 cikar
004F   3040           00120         movlw b'01000000'
0050   2852           00121         goto kesmesonu
                      00122 
0051                  00123 topla
0051   3070           00124         movlw b'01110000'
                      00125 
0052                  00126 kesmesonu
0052   0088           00127         movwf PORTD
0053   1586           00128         bsf PORTB,3
0054   1506           00129         bsf PORTB,2     
0055   1486           00130         bsf PORTB,1
0056   1406           00131         bsf PORTB,0
0057   0009           00132         retfie
                      00133 
0058                  00134 ana_program
0058   30C8           00135         movlw b'11001000'
0059   008B           00136         movwf INTCON
005A   1683           00137         bsf STATUS,RP0
005B   30F0           00138         movlw b'11110000'
Message[302]: Register in operand not in bank 0.  Ensure that bank bits are correct.
005C   0086           00139         movwf TRISB
005D   3000           00140         movlw b'00000000'
Message[302]: Register in operand not in bank 0.  Ensure that bank bits are correct.
005E   0085           00141         movwf TRISA
Message[302]: Register in operand not in bank 0.  Ensure that bank bits are correct.
005F   0088           00142         movwf TRISD
0060   1283           00143         bcf STATUS,RP0
0061   300F           00144         movlw b'001111'
MPASM  5.42                     TUSTAKIMI.ASM   11-15-2011  9:28:46         PAGE  4


LOC  OBJECT CODE     LINE SOURCE TEXT
  VALUE

0062   0085           00145         movwf PORTA
0063   0188           00146         clrf PORTD
0064   1586           00147         bsf PORTB,3
0065   1506           00148         bsf PORTB,2     
0066   1486           00149         bsf PORTB,1
0067   1406           00150         bsf PORTB,0
                      00151         
0068                  00152 dongu
0068   2868           00153         goto dongu
                      00154         end
MPASM  5.42                     TUSTAKIMI.ASM   11-15-2011  9:28:46         PAGE  5


SYMBOL TABLE
  LABEL                             VALUE 

ACKDT                             00000005
ACKEN                             00000004
ACKSTAT                           00000006
ADCON0                            0000001F
ADCON1                            0000009F
ADCS0                             00000006
ADCS1                             00000007
ADCS2                             00000006
ADDEN                             00000003
ADFM                              00000007
ADIE                              00000006
ADIF                              00000006
ADON                              00000000
ADRESH                            0000001E
ADRESL                            0000009E
BCLIE                             00000003
BCLIF                             00000003
BF                                00000000
BRGH                              00000002
C                                 00000000
C1INV                             00000004
C1OUT                             00000006
C2INV                             00000005
C2OUT                             00000007
CCP1CON                           00000017
CCP1IE                            00000002
CCP1IF                            00000002
CCP1M0                            00000000
CCP1M1                            00000001
CCP1M2                            00000002
CCP1M3                            00000003
CCP1X                             00000005
CCP1Y                             00000004
CCP2CON                           0000001D
CCP2IE                            00000000
CCP2IF                            00000000
CCP2M0                            00000000
CCP2M1                            00000001
CCP2M2                            00000002
CCP2M3                            00000003
CCP2X                             00000005
CCP2Y                             00000004
CCPR1                             00000015
CCPR1H                            00000016
CCPR1L                            00000015
CCPR2                             0000001B
CCPR2H                            0000001C
CCPR2L                            0000001B
CHS0                              00000003
CHS1                              00000004
CHS2                              00000005
CIS                               00000003
CKE                               00000006
MPASM  5.42                     TUSTAKIMI.ASM   11-15-2011  9:28:46         PAGE  6


SYMBOL TABLE
  LABEL                             VALUE 

CKP                               00000004
CM0                               00000000
CM1                               00000001
CM2                               00000002
CMCON                             0000009C
CMIE                              00000006
CMIF                              00000006
CREN                              00000004
CSRC                              00000007
CVR0                              00000000
CVR1                              00000001
CVR2                              00000002
CVR3                              00000003
CVRCON                            0000009D
CVREN                             00000007
CVROE                             00000006
CVRR                              00000005
D                                 00000005
DATA_ADDRESS                      00000005
DC                                00000001
D_A                               00000005
D_NOT_A                           00000005
EEADR                             0000010D
EEADRH                            0000010F
EECON1                            0000018C
EECON2                            0000018D
EEDATA                            0000010C
EEDATH                            0000010E
EEIE                              00000004
EEIF                              00000004
EEPGD                             00000007
F                                 00000001
FERR                              00000002
FSR                               00000004
GCEN                              00000007
GIE                               00000007
GO                                00000002
GO_DONE                           00000002
GO_NOT_DONE                       00000002
I2C_DATA                          00000005
I2C_READ                          00000002
I2C_START                         00000003
I2C_STOP                          00000004
IBF                               00000007
IBOV                              00000005
INDF                              00000000
INTCON                            0000000B
INTE                              00000004
INTEDG                            00000006
INTF                              00000001
IRP                               00000007
NOT_A                             00000005
NOT_ADDRESS                       00000005
MPASM  5.42                     TUSTAKIMI.ASM   11-15-2011  9:28:46         PAGE  7


SYMBOL TABLE
  LABEL                             VALUE 

NOT_BO                            00000000
NOT_BOR                           00000000
NOT_DONE                          00000002
NOT_PD                            00000003
NOT_POR                           00000001
NOT_RBPU                          00000007
NOT_RC8                           00000006
NOT_T1SYNC                        00000002
NOT_TO                            00000004
NOT_TX8                           00000006
NOT_W                             00000002
NOT_WRITE                         00000002
OBF                               00000006
OERR                              00000001
OPTION_REG                        00000081
P                                 00000004
PCFG0                             00000000
PCFG1                             00000001
PCFG2                             00000002
PCFG3                             00000003
PCL                               00000002
PCLATH                            0000000A
PCON                              0000008E
PEIE                              00000006
PEN                               00000002
PIE1                              0000008C
PIE2                              0000008D
PIR1                              0000000C
PIR2                              0000000D
PORTA                             00000005
PORTB                             00000006
PORTC                             00000007
PORTD                             00000008
PORTE                             00000009
PR2                               00000092
PS0                               00000000
PS1                               00000001
PS2                               00000002
PSA                               00000003
PSPIE                             00000007
PSPIF                             00000007
PSPMODE                           00000004
R                                 00000002
RA0                               00000000
RA1                               00000001
RA2                               00000002
RA3                               00000003
RA4                               00000004
RA5                               00000005
RB0                               00000000
RB1                               00000001
RB2                               00000002
RB3                               00000003
MPASM  5.42                     TUSTAKIMI.ASM   11-15-2011  9:28:46         PAGE  8


SYMBOL TABLE
  LABEL                             VALUE 

RB4                               00000004
RB5                               00000005
RB6                               00000006
RB7                               00000007
RBIE                              00000003
RBIF                              00000000
RC0                               00000000
RC1                               00000001
RC2                               00000002
RC3                               00000003
RC4                               00000004
RC5                               00000005
RC6                               00000006
RC7                               00000007
RC8_9                             00000006
RC9                               00000006
RCD8                              00000000
RCEN                              00000003
RCIE                              00000005
RCIF                              00000005
RCREG                             0000001A
RCSTA                             00000018
RD                                00000000
RD0                               00000000
RD1                               00000001
RD2                               00000002
RD3                               00000003
RD4                               00000004
RD5                               00000005
RD6                               00000006
RD7                               00000007
RE0                               00000000
RE1                               00000001
RE2                               00000002
READ_WRITE                        00000002
RP0                               00000005
RP1                               00000006
RSEN                              00000001
RX9                               00000006
RX9D                              00000000
R_NOT_W                           00000002
R_W                               00000002
S                                 00000003
SEN                               00000000
SMP                               00000007
SPBRG                             00000099
SPEN                              00000007
SREN                              00000005
SSPADD                            00000093
SSPBUF                            00000013
SSPCON                            00000014
SSPCON2                           00000091
SSPEN                             00000005
MPASM  5.42                     TUSTAKIMI.ASM   11-15-2011  9:28:46         PAGE  9


SYMBOL TABLE
  LABEL                             VALUE 

SSPIE                             00000003
SSPIF                             00000003
SSPM0                             00000000
SSPM1                             00000001
SSPM2                             00000002
SSPM3                             00000003
SSPOV                             00000006
SSPSTAT                           00000094
STATUS                            00000003
SYNC                              00000004
T0CS                              00000005
T0IE                              00000005
T0IF                              00000002
T0SE                              00000004
T1CKPS0                           00000004
T1CKPS1                           00000005
T1CON                             00000010
T1INSYNC                          00000002
T1OSCEN                           00000003
T1SYNC                            00000002
T2CKPS0                           00000000
T2CKPS1                           00000001
T2CON                             00000012
TMR0                              00000001
TMR0IE                            00000005
TMR0IF                            00000002
TMR1CS                            00000001
TMR1H                             0000000F
TMR1IE                            00000000
TMR1IF                            00000000
TMR1L                             0000000E
TMR1ON                            00000000
TMR2                              00000011
TMR2IE                            00000001
TMR2IF                            00000001
TMR2ON                            00000002
TOUTPS0                           00000003
TOUTPS1                           00000004
TOUTPS2                           00000005
TOUTPS3                           00000006
TRISA                             00000085
TRISA0                            00000000
TRISA1                            00000001
TRISA2                            00000002
TRISA3                            00000003
TRISA4                            00000004
TRISA5                            00000005
TRISB                             00000086
TRISB0                            00000000
TRISB1                            00000001
TRISB2                            00000002
TRISB3                            00000003
TRISB4                            00000004
MPASM  5.42                     TUSTAKIMI.ASM   11-15-2011  9:28:46         PAGE 10


SYMBOL TABLE
  LABEL                             VALUE 

TRISB5                            00000005
TRISB6                            00000006
TRISB7                            00000007
TRISC                             00000087
TRISC0                            00000000
TRISC1                            00000001
TRISC2                            00000002
TRISC3                            00000003
TRISC4                            00000004
TRISC5                            00000005
TRISC6                            00000006
TRISC7                            00000007
TRISD                             00000088
TRISD0                            00000000
TRISD1                            00000001
TRISD2                            00000002
TRISD3                            00000003
TRISD4                            00000004
TRISD5                            00000005
TRISD6                            00000006
TRISD7                            00000007
TRISE                             00000089
TRISE0                            00000000
TRISE1                            00000001
TRISE2                            00000002
TRMT                              00000001
TX8_9                             00000006
TX9                               00000006
TX9D                              00000000
TXD8                              00000000
TXEN                              00000005
TXIE                              00000004
TXIF                              00000004
TXREG                             00000019
TXSTA                             00000098
UA                                00000001
W                                 00000000
WCOL                              00000007
WR                                00000001
WREN                              00000002
WRERR                             00000003
Z                                 00000002
_BODEN_OFF                        00003FBF
_BODEN_ON                         00003FFF
_CONFIG                           00002007
_CPD_OFF                          00003FFF
_CPD_ON                           00003EFF
_CP_ALL                           00001FFF
_CP_OFF                           00003FFF
_DEBUG_OFF                        00003FFF
_DEBUG_ON                         000037FF
_DEVID1                           00002006
_HS_OSC                           00003FFE
MPASM  5.42                     TUSTAKIMI.ASM   11-15-2011  9:28:46         PAGE 11


SYMBOL TABLE
  LABEL                             VALUE 

_IDLOC0                           00002000
_IDLOC1                           00002001
_IDLOC2                           00002002
_IDLOC3                           00002003
_LP_OSC                           00003FFC
_LVP_OFF                          00003F7F
_LVP_ON                           00003FFF
_PWRTE_OFF                        00003FFF
_PWRTE_ON                         00003FF7
_RC_OSC                           00003FFF
_WDT_OFF                          00003FFB
_WDT_ON                           00003FFF
_WRT_1FOURTH                      00003BFF
_WRT_256                          00003DFF
_WRT_HALF                         000039FF
_WRT_OFF                          00003FFF
_XT_OSC                           00003FFD
__16F877A                         00000001
__DEBUG                           1
a                                 00000049
alti                              0000003D
ana_program                       00000058
bes                               0000003B
bir                               00000033
bol                               0000004B
carp                              0000004D
cikar                             0000004F
dokuz                             00000043
dongu                             00000068
dort                              00000039
iki                               00000035
kesme                             00000004
kesmesonu                         00000052
p                                 00000045
sekiz                             00000041
sifir                             00000047
topla                             00000051
tustakimi                         00000007
uc                                00000037
yedi                              0000003F


MEMORY USAGE MAP ('X' = Used,  '-' = Unused)

0000 : X---XXXXXXXXXXXX XXXXXXXXXXXXXXXX XXXXXXXXXXXXXXXX XXXXXXXXXXXXXXXX
0040 : XXXXXXXXXXXXXXXX XXXXXXXXXXXXXXXX XXXXXXXXX------- ----------------
MPASM  5.42                     TUSTAKIMI.ASM   11-15-2011  9:28:46         PAGE 12


MEMORY USAGE MAP ('X' = Used,  '-' = Unused)


2000 : -------X-------- ---------------- ---------------- ----------------

All other memory blocks unused.

Program Memory Words Used:   102
Program Memory Words Free:  8090


Errors   :     0
Warnings :     3 reported,     0 suppressed
Messages :     3 reported,     0 suppressed

